; Function Attrs: mustprogress uwtable
define void @_ZN7testing8UnitTestC2Ev(ptr noundef nonnull align 8 dereferenceable(72) initializes((0, 8)) %0) unnamed_addr #3 align 2 personality ptr @__gxx_personality_v0 {
  %2 = alloca %"class.testing::internal::GTestLog", align 4
  store ptr getelementptr inbounds nuw inrange(-16, 16) (i8, ptr @_ZTVN7testing8UnitTestE, i64 16), ptr %0, align 8, !tbaa !32
  %3 = getelementptr inbounds nuw i8, ptr %0, i64 8
  %4 = tail call i32 @pthread_mutex_init(ptr noundef nonnull align 8 dereferenceable(56) %3, ptr noundef null) #57
  %.not.i = icmp eq i32 %4, 0
  br i1 %.not.i, label %_ZN7testing8internal5MutexC2Ev.exit, label %5

5:                                                ; preds = %1
  call void @llvm.lifetime.start.p0(i64 4, ptr nonnull %2) #57
  call void @_ZN7testing8internal8GTestLogC1ENS0_16GTestLogSeverityEPKci(ptr noundef nonnull align 4 dereferenceable(4) %2, i32 noundef 3, ptr noundef nonnull @.str.450, i32 noundef 1707)
  %6 = invoke noundef nonnull align 8 dereferenceable(8) ptr @_ZSt16__ostream_insertIcSt11char_traitsIcEERSt13basic_ostreamIT_T0_ES6_PKS3_l(ptr noundef nonnull align 8 dereferenceable(8) @_ZSt4cerr, ptr noundef nonnull @.str.458, i64 noundef 36)
          to label %_ZStlsISt11char_traitsIcEERSt13basic_ostreamIcT_ES5_PKc.exit.i unwind label %10

_ZStlsISt11char_traitsIcEERSt13basic_ostreamIcT_ES5_PKc.exit.i: ; preds = %5
  %7 = invoke noundef nonnull align 8 dereferenceable(8) ptr @_ZSt16__ostream_insertIcSt11char_traitsIcEERSt13basic_ostreamIT_T0_ES6_PKS3_l(ptr noundef nonnull align 8 dereferenceable(8) @_ZSt4cerr, ptr noundef nonnull @.str.452, i64 noundef 18)
          to label %_ZStlsISt11char_traitsIcEERSt13basic_ostreamIcT_ES5_PKc.exit4.i unwind label %10

_ZStlsISt11char_traitsIcEERSt13basic_ostreamIcT_ES5_PKc.exit4.i: ; preds = %_ZStlsISt11char_traitsIcEERSt13basic_ostreamIcT_ES5_PKc.exit.i
  %8 = invoke noundef nonnull align 8 dereferenceable(8) ptr @_ZNSolsEi(ptr noundef nonnull align 8 dereferenceable(8) @_ZSt4cerr, i32 noundef %4)
          to label %9 unwind label %10

9:                                                ; preds = %_ZStlsISt11char_traitsIcEERSt13basic_ostreamIcT_ES5_PKc.exit4.i
  call void @_ZN7testing8internal8GTestLogD1Ev(ptr noundef nonnull align 4 dereferenceable(4) %2) #57
  call void @llvm.lifetime.end.p0(i64 4, ptr nonnull %2) #57
  br label %_ZN7testing8internal5MutexC2Ev.exit

common.resume:                                    ; preds = %21, %10
  %common.resume.op = phi { ptr, i32 } [ %11, %10 ], [ %.pn, %21 ]
  resume { ptr, i32 } %common.resume.op

10:                                               ; preds = %_ZStlsISt11char_traitsIcEERSt13basic_ostreamIcT_ES5_PKc.exit4.i, %_ZStlsISt11char_traitsIcEERSt13basic_ostreamIcT_ES5_PKc.exit.i, %5
  %11 = landingpad { ptr, i32 }
          cleanup
  call void @_ZN7testing8internal8GTestLogD1Ev(ptr noundef nonnull align 4 dereferenceable(4) %2) #57
  call void @llvm.lifetime.end.p0(i64 4, ptr nonnull %2) #57
  br label %common.resume

_ZN7testing8internal5MutexC2Ev.exit:              ; preds = %1, %9
  %12 = getelementptr inbounds nuw i8, ptr %0, i64 48
  store i8 0, ptr %12, align 8, !tbaa !650
  %13 = invoke noalias noundef nonnull dereferenceable(608) ptr @_Znwm(i64 noundef 608) #56
          to label %14 unwind label %17

14:                                               ; preds = %_ZN7testing8internal5MutexC2Ev.exit
  invoke void @_ZN7testing8internal12UnitTestImplC1EPNS_8UnitTestE(ptr noundef nonnull align 8 dereferenceable(601) %13, ptr noundef nonnull %0)
          to label %15 unwind label %19

15:                                               ; preds = %14
  %16 = getelementptr inbounds nuw i8, ptr %0, i64 64
  store ptr %13, ptr %16, align 8, !tbaa !47
  ret void

17:                                               ; preds = %_ZN7testing8internal5MutexC2Ev.exit
  %18 = landingpad { ptr, i32 }
          cleanup
  br label %21

19:                                               ; preds = %14
  %20 = landingpad { ptr, i32 }
          cleanup
  call void @_ZdlPvm(ptr noundef nonnull %13, i64 noundef 608) #58
  br label %21

21:                                               ; preds = %19, %17
  %.pn = phi { ptr, i32 } [ %20, %19 ], [ %18, %17 ]
  call void @_ZN7testing8internal5MutexD2Ev(ptr noundef nonnull align 8 dereferenceable(56) %3) #57
  br label %common.resume
}